; ModuleID = '32/573.c'
source_filename = "32/573.c"
target datalayout = "e-m:e-p270:32:32-p271:32:32-p272:64:64-i64:64-f80:128-n8:16:32:64-S128"
target triple = "x86_64-pc-linux-gnu"

@.str = private unnamed_addr constant [3 x i8] c"%d\00", align 1
@.str.1 = private unnamed_addr constant [3 x i8] c"%s\00", align 1
@.str.2 = private unnamed_addr constant [2 x i8] c"\0A\00", align 1
@.str.3 = private unnamed_addr constant [3 x i8] c"%c\00", align 1

; Function Attrs: noinline nounwind uwtable
define dso_local void @main() #0 {
  %1 = alloca i32, align 4
  %2 = alloca i32, align 4
  %3 = alloca i32, align 4
  %4 = alloca i32, align 4
  %5 = alloca i32, align 4
  %6 = alloca i32, align 4
  %7 = alloca i32, align 4
  %8 = alloca [101 x i8], align 16
  %9 = alloca [101 x i8], align 16
  %10 = call i32 (i8*, ...) @__isoc99_scanf(i8* getelementptr inbounds ([3 x i8], [3 x i8]* @.str, i64 0, i64 0), i32* %7)
  store i32 1, i32* %2, align 4
  br label %11

11:                                               ; preds = %173, %0
  %12 = load i32, i32* %2, align 4
  %13 = load i32, i32* %7, align 4
  %14 = icmp sle i32 %12, %13
  br i1 %14, label %15, label %176

15:                                               ; preds = %11
  %16 = getelementptr inbounds [101 x i8], [101 x i8]* %8, i64 0, i64 0
  %17 = call i32 (i8*, ...) @__isoc99_scanf(i8* getelementptr inbounds ([3 x i8], [3 x i8]* @.str.1, i64 0, i64 0), i8* %16)
  %18 = getelementptr inbounds [101 x i8], [101 x i8]* %9, i64 0, i64 0
  %19 = call i32 (i8*, ...) @__isoc99_scanf(i8* getelementptr inbounds ([3 x i8], [3 x i8]* @.str.1, i64 0, i64 0), i8* %18)
  %20 = getelementptr inbounds [101 x i8], [101 x i8]* %8, i64 0, i64 0
  %21 = call i64 @strlen(i8* %20) #3
  %22 = trunc i64 %21 to i32
  store i32 %22, i32* %4, align 4
  %23 = getelementptr inbounds [101 x i8], [101 x i8]* %9, i64 0, i64 0
  %24 = call i64 @strlen(i8* %23) #3
  %25 = trunc i64 %24 to i32
  store i32 %25, i32* %5, align 4
  %26 = call i32 (i8*, ...) @printf(i8* getelementptr inbounds ([2 x i8], [2 x i8]* @.str.2, i64 0, i64 0))
  %27 = load i32, i32* %4, align 4
  %28 = load i32, i32* %5, align 4
  %29 = sub nsw i32 %27, %28
  store i32 %29, i32* %6, align 4
  store i32 0, i32* %3, align 4
  %30 = load i32, i32* %4, align 4
  %31 = sub nsw i32 %30, 1
  store i32 %31, i32* %1, align 4
  br label %32

32:                                               ; preds = %105, %15
  %33 = load i32, i32* %1, align 4
  %34 = load i32, i32* %6, align 4
  %35 = icmp sge i32 %33, %34
  br i1 %35, label %36, label %108

36:                                               ; preds = %32
  %37 = load i32, i32* %1, align 4
  %38 = sext i32 %37 to i64
  %39 = getelementptr inbounds [101 x i8], [101 x i8]* %8, i64 0, i64 %38
  %40 = load i8, i8* %39, align 1
  %41 = sext i8 %40 to i32
  %42 = load i32, i32* %1, align 4
  %43 = load i32, i32* %6, align 4
  %44 = sub nsw i32 %42, %43
  %45 = sext i32 %44 to i64
  %46 = getelementptr inbounds [101 x i8], [101 x i8]* %9, i64 0, i64 %45
  %47 = load i8, i8* %46, align 1
  %48 = sext i8 %47 to i32
  %49 = icmp slt i32 %41, %48
  br i1 %49, label %50, label %83

50:                                               ; preds = %36
  %51 = load i32, i32* %1, align 4
  %52 = sext i32 %51 to i64
  %53 = getelementptr inbounds [101 x i8], [101 x i8]* %8, i64 0, i64 %52
  %54 = load i8, i8* %53, align 1
  %55 = sext i8 %54 to i32
  %56 = load i32, i32* %1, align 4
  %57 = load i32, i32* %6, align 4
  %58 = sub nsw i32 %56, %57
  %59 = sext i32 %58 to i64
  %60 = getelementptr inbounds [101 x i8], [101 x i8]* %9, i64 0, i64 %59
  %61 = load i8, i8* %60, align 1
  %62 = sext i8 %61 to i32
  %63 = sub nsw i32 %55, %62
  %64 = add nsw i32 %63, 58
  %65 = trunc i32 %64 to i8
  %66 = load i32, i32* %1, align 4
  %67 = sext i32 %66 to i64
  %68 = getelementptr inbounds [101 x i8], [101 x i8]* %8, i64 0, i64 %67
  store i8 %65, i8* %68, align 1
  %69 = load i32, i32* %1, align 4
  %70 = sub nsw i32 %69, 1
  %71 = sext i32 %70 to i64
  %72 = getelementptr inbounds [101 x i8], [101 x i8]* %8, i64 0, i64 %71
  %73 = load i8, i8* %72, align 1
  %74 = sext i8 %73 to i32
  %75 = sub nsw i32 %74, 1
  %76 = trunc i32 %75 to i8
  %77 = load i32, i32* %1, align 4
  %78 = sub nsw i32 %77, 1
  %79 = sext i32 %78 to i64
  %80 = getelementptr inbounds [101 x i8], [101 x i8]* %8, i64 0, i64 %79
  store i8 %76, i8* %80, align 1
  %81 = load i32, i32* %3, align 4
  %82 = add nsw i32 %81, 1
  store i32 %82, i32* %3, align 4
  br label %104

83:                                               ; preds = %36
  %84 = load i32, i32* %1, align 4
  %85 = sext i32 %84 to i64
  %86 = getelementptr inbounds [101 x i8], [101 x i8]* %8, i64 0, i64 %85
  %87 = load i8, i8* %86, align 1
  %88 = sext i8 %87 to i32
  %89 = load i32, i32* %1, align 4
  %90 = load i32, i32* %6, align 4
  %91 = sub nsw i32 %89, %90
  %92 = sext i32 %91 to i64
  %93 = getelementptr inbounds [101 x i8], [101 x i8]* %9, i64 0, i64 %92
  %94 = load i8, i8* %93, align 1
  %95 = sext i8 %94 to i32
  %96 = sub nsw i32 %88, %95
  %97 = add nsw i32 %96, 48
  %98 = trunc i32 %97 to i8
  %99 = load i32, i32* %1, align 4
  %100 = sext i32 %99 to i64
  %101 = getelementptr inbounds [101 x i8], [101 x i8]* %8, i64 0, i64 %100
  store i8 %98, i8* %101, align 1
  %102 = load i32, i32* %3, align 4
  %103 = add nsw i32 %102, 1
  store i32 %103, i32* %3, align 4
  br label %104

104:                                              ; preds = %83, %50
  br label %105

105:                                              ; preds = %104
  %106 = load i32, i32* %1, align 4
  %107 = add nsw i32 %106, -1
  store i32 %107, i32* %1, align 4
  br label %32

108:                                              ; preds = %32
  %109 = load i32, i32* %4, align 4
  %110 = sub nsw i32 %109, 1
  store i32 %110, i32* %1, align 4
  br label %111

111:                                              ; preds = %145, %108
  %112 = load i32, i32* %1, align 4
  %113 = icmp sgt i32 %112, 0
  br i1 %113, label %114, label %148

114:                                              ; preds = %111
  %115 = load i32, i32* %1, align 4
  %116 = sext i32 %115 to i64
  %117 = getelementptr inbounds [101 x i8], [101 x i8]* %8, i64 0, i64 %116
  %118 = load i8, i8* %117, align 1
  %119 = sext i8 %118 to i32
  %120 = icmp slt i32 %119, 48
  br i1 %120, label %121, label %144

121:                                              ; preds = %114
  %122 = load i32, i32* %1, align 4
  %123 = sext i32 %122 to i64
  %124 = getelementptr inbounds [101 x i8], [101 x i8]* %8, i64 0, i64 %123
  %125 = load i8, i8* %124, align 1
  %126 = sext i8 %125 to i32
  %127 = add nsw i32 %126, 10
  %128 = trunc i32 %127 to i8
  %129 = load i32, i32* %1, align 4
  %130 = sext i32 %129 to i64
  %131 = getelementptr inbounds [101 x i8], [101 x i8]* %8, i64 0, i64 %130
  store i8 %128, i8* %131, align 1
  %132 = load i32, i32* %1, align 4
  %133 = sub nsw i32 %132, 1
  %134 = sext i32 %133 to i64
  %135 = getelementptr inbounds [101 x i8], [101 x i8]* %8, i64 0, i64 %134
  %136 = load i8, i8* %135, align 1
  %137 = sext i8 %136 to i32
  %138 = sub nsw i32 %137, 1
  %139 = trunc i32 %138 to i8
  %140 = load i32, i32* %1, align 4
  %141 = sub nsw i32 %140, 1
  %142 = sext i32 %141 to i64
  %143 = getelementptr inbounds [101 x i8], [101 x i8]* %8, i64 0, i64 %142
  store i8 %139, i8* %143, align 1
  br label %144

144:                                              ; preds = %121, %114
  br label %145

145:                                              ; preds = %144
  %146 = load i32, i32* %1, align 4
  %147 = add nsw i32 %146, -1
  store i32 %147, i32* %1, align 4
  br label %111

148:                                              ; preds = %111
  %149 = getelementptr inbounds [101 x i8], [101 x i8]* %8, i64 0, i64 0
  %150 = load i8, i8* %149, align 16
  %151 = sext i8 %150 to i32
  %152 = icmp eq i32 %151, 48
  br i1 %152, label %153, label %154

153:                                              ; preds = %148
  store i32 1, i32* %3, align 4
  br label %155

154:                                              ; preds = %148
  store i32 0, i32* %3, align 4
  br label %155

155:                                              ; preds = %154, %153
  %156 = load i32, i32* %3, align 4
  store i32 %156, i32* %1, align 4
  br label %157

157:                                              ; preds = %168, %155
  %158 = load i32, i32* %1, align 4
  %159 = load i32, i32* %4, align 4
  %160 = icmp slt i32 %158, %159
  br i1 %160, label %161, label %171

161:                                              ; preds = %157
  %162 = load i32, i32* %1, align 4
  %163 = sext i32 %162 to i64
  %164 = getelementptr inbounds [101 x i8], [101 x i8]* %8, i64 0, i64 %163
  %165 = load i8, i8* %164, align 1
  %166 = sext i8 %165 to i32
  %167 = call i32 (i8*, ...) @printf(i8* getelementptr inbounds ([3 x i8], [3 x i8]* @.str.3, i64 0, i64 0), i32 %166)
  br label %168

168:                                              ; preds = %161
  %169 = load i32, i32* %1, align 4
  %170 = add nsw i32 %169, 1
  store i32 %170, i32* %1, align 4
  br label %157

171:                                              ; preds = %157
  %172 = call i32 (i8*, ...) @printf(i8* getelementptr inbounds ([2 x i8], [2 x i8]* @.str.2, i64 0, i64 0))
  br label %173

173:                                              ; preds = %171
  %174 = load i32, i32* %2, align 4
  %175 = add nsw i32 %174, 1
  store i32 %175, i32* %2, align 4
  br label %11

176:                                              ; preds = %11
  ret void
}

declare dso_local i32 @__isoc99_scanf(i8*, ...) #1

; Function Attrs: nounwind readonly
declare dso_local i64 @strlen(i8*) #2

declare dso_local i32 @printf(i8*, ...) #1


!llvm.module.flags = !{!0}
!llvm.ident = !{!1}

!0 = !{i32 1, !"wchar_size", i32 4}
!1 = !{!"clang version 10.0.0-4ubuntu1 "}
